target datalayout = "e-m:e-p270:32:32-p271:32:32-p272:64:64-i64:64-i128:128-f80:128-n8:16:32:64-S128"
target triple = "x86_64-pc-linux-gnu"

@hf_zbee_zcl_power_config_batt_type = internal global i32 0, align 4
@hf_zbee_zcl_power_config_mains_alarm_mask = internal global i32 0, align 4
@hf_zbee_zcl_power_config_batt_alarm_mask = internal global i32 0, align 4
@hf_zbee_zcl_power_config_mains_voltage = internal global i32 0, align 4
@hf_zbee_zcl_power_config_mains_frequency = internal global i32 0, align 4
@hf_zbee_zcl_power_config_mains_voltage_min_thr = internal global i32 0, align 4
@hf_zbee_zcl_power_config_mains_voltage_max_thr = internal global i32 0, align 4
@hf_zbee_zcl_power_config_batt_voltage = internal global i32 0, align 4
@hf_zbee_zcl_power_config_batt_percentage = internal global i32 0, align 4
@hf_zbee_zcl_power_config_batt_ah_rating = internal global i32 0, align 4
@hf_zbee_zcl_power_config_batt_rated_voltage = internal global i32 0, align 4
@hf_zbee_zcl_power_config_batt_voltage_min_thr = internal global i32 0, align 4
@hf_zbee_zcl_power_config_mains_voltage_dwell_tp = internal global i32 0, align 4
@ett_zbee_zcl_power_config_mains_alarm_mask = internal global i32 0, align 4
@ett_zbee_zcl_power_config_batt_alarm_mask = internal global i32 0, align 4
@dissect_zcl_power_config_attr_data.mains_alarm_mask = internal constant [4 x ptr] [ptr @hf_zbee_zcl_power_config_mains_alarm_mask_low, ptr @hf_zbee_zcl_power_config_mains_alarm_mask_high, ptr @hf_zbee_zcl_power_config_mains_alarm_mask_reserved, ptr null], align 16
@dissect_zcl_power_config_attr_data.batt_alarm_mask = internal constant [3 x ptr] [ptr @hf_zbee_zcl_power_config_batt_alarm_mask_low, ptr @hf_zbee_zcl_power_config_batt_alarm_mask_reserved, ptr null], align 16
@.str.1217 = private unnamed_addr constant [5 x i8] c" [s]\00", align 1

; Function Attrs: null_pointer_is_valid sspstrong uwtable
define internal void @dissect_zcl_power_config_attr_data(ptr noundef %0, ptr noundef %1, ptr noundef %2, i16 noundef zeroext %3, i32 noundef %4, i1 noundef zeroext %5) #0 {
  %7 = alloca ptr, align 8
  %8 = alloca ptr, align 8
  %9 = alloca ptr, align 8
  %10 = alloca i16, align 2
  %11 = alloca i32, align 4
  %12 = alloca i8, align 1
  %13 = alloca ptr, align 8
  store ptr %0, ptr %7, align 8
  store ptr %1, ptr %8, align 8
  store ptr %2, ptr %9, align 8
  store i16 %3, ptr %10, align 2
  store i32 %4, ptr %11, align 4
  %14 = zext i1 %5 to i8
  store i8 %14, ptr %12, align 1
  call void @llvm.lifetime.start.p0(i64 8, ptr %13) #7
  %15 = load i16, ptr %10, align 2
  %16 = zext i16 %15 to i32
  switch i32 %16, label %151 [
    i32 0, label %17
    i32 1, label %27
    i32 16, label %37
    i32 17, label %48
    i32 18, label %58
    i32 19, label %68
    i32 49, label %79
    i32 32, label %89
    i32 33, label %99
    i32 50, label %109
    i32 52, label %119
    i32 53, label %129
    i32 54, label %140
    i32 48, label %150
    i32 51, label %150
  ]

17:                                               ; preds = %6
  %18 = load ptr, ptr %7, align 8
  %19 = load i32, ptr @hf_zbee_zcl_power_config_mains_voltage, align 4
  %20 = load ptr, ptr %8, align 8
  %21 = load ptr, ptr %9, align 8
  %22 = load i32, ptr %21, align 4
  %23 = call ptr @proto_tree_add_item(ptr noundef %18, i32 noundef %19, ptr noundef %20, i32 noundef %22, i32 noundef 2, i32 noundef -2147483648)
  %24 = load ptr, ptr %9, align 8
  %25 = load i32, ptr %24, align 4
  %26 = add i32 %25, 2
  store i32 %26, ptr %24, align 4
  br label %158

27:                                               ; preds = %6
  %28 = load ptr, ptr %7, align 8
  %29 = load i32, ptr @hf_zbee_zcl_power_config_mains_frequency, align 4
  %30 = load ptr, ptr %8, align 8
  %31 = load ptr, ptr %9, align 8
  %32 = load i32, ptr %31, align 4
  %33 = call ptr @proto_tree_add_item(ptr noundef %28, i32 noundef %29, ptr noundef %30, i32 noundef %32, i32 noundef 1, i32 noundef -2147483648)
  %34 = load ptr, ptr %9, align 8
  %35 = load i32, ptr %34, align 4
  %36 = add i32 %35, 1
  store i32 %36, ptr %34, align 4
  br label %158

37:                                               ; preds = %6
  %38 = load ptr, ptr %7, align 8
  %39 = load ptr, ptr %8, align 8
  %40 = load ptr, ptr %9, align 8
  %41 = load i32, ptr %40, align 4
  %42 = load i32, ptr @hf_zbee_zcl_power_config_mains_alarm_mask, align 4
  %43 = load i32, ptr @ett_zbee_zcl_power_config_mains_alarm_mask, align 4
  %44 = call ptr @proto_tree_add_bitmask(ptr noundef %38, ptr noundef %39, i32 noundef %41, i32 noundef %42, i32 noundef %43, ptr noundef @dissect_zcl_power_config_attr_data.mains_alarm_mask, i32 noundef -2147483648)
  %45 = load ptr, ptr %9, align 8
  %46 = load i32, ptr %45, align 4
  %47 = add i32 %46, 1
  store i32 %47, ptr %45, align 4
  br label %158

48:                                               ; preds = %6
  %49 = load ptr, ptr %7, align 8
  %50 = load i32, ptr @hf_zbee_zcl_power_config_mains_voltage_min_thr, align 4
  %51 = load ptr, ptr %8, align 8
  %52 = load ptr, ptr %9, align 8
  %53 = load i32, ptr %52, align 4
  %54 = call ptr @proto_tree_add_item(ptr noundef %49, i32 noundef %50, ptr noundef %51, i32 noundef %53, i32 noundef 2, i32 noundef -2147483648)
  %55 = load ptr, ptr %9, align 8
  %56 = load i32, ptr %55, align 4
  %57 = add i32 %56, 2
  store i32 %57, ptr %55, align 4
  br label %158

58:                                               ; preds = %6
  %59 = load ptr, ptr %7, align 8
  %60 = load i32, ptr @hf_zbee_zcl_power_config_mains_voltage_max_thr, align 4
  %61 = load ptr, ptr %8, align 8
  %62 = load ptr, ptr %9, align 8
  %63 = load i32, ptr %62, align 4
  %64 = call ptr @proto_tree_add_item(ptr noundef %59, i32 noundef %60, ptr noundef %61, i32 noundef %63, i32 noundef 2, i32 noundef -2147483648)
  %65 = load ptr, ptr %9, align 8
  %66 = load i32, ptr %65, align 4
  %67 = add i32 %66, 2
  store i32 %67, ptr %65, align 4
  br label %158

68:                                               ; preds = %6
  %69 = load ptr, ptr %7, align 8
  %70 = load i32, ptr @hf_zbee_zcl_power_config_mains_voltage_dwell_tp, align 4
  %71 = load ptr, ptr %8, align 8
  %72 = load ptr, ptr %9, align 8
  %73 = load i32, ptr %72, align 4
  %74 = call ptr @proto_tree_add_item(ptr noundef %69, i32 noundef %70, ptr noundef %71, i32 noundef %73, i32 noundef 2, i32 noundef -2147483648)
  store ptr %74, ptr %13, align 8
  %75 = load ptr, ptr %13, align 8
  call void (ptr, ptr, ...) @proto_item_append_text(ptr noundef %75, ptr noundef @.str.1217)
  %76 = load ptr, ptr %9, align 8
  %77 = load i32, ptr %76, align 4
  %78 = add i32 %77, 2
  store i32 %78, ptr %76, align 4
  br label %158

79:                                               ; preds = %6
  %80 = load ptr, ptr %7, align 8
  %81 = load i32, ptr @hf_zbee_zcl_power_config_batt_type, align 4
  %82 = load ptr, ptr %8, align 8
  %83 = load ptr, ptr %9, align 8
  %84 = load i32, ptr %83, align 4
  %85 = call ptr @proto_tree_add_item(ptr noundef %80, i32 noundef %81, ptr noundef %82, i32 noundef %84, i32 noundef 1, i32 noundef -2147483648)
  %86 = load ptr, ptr %9, align 8
  %87 = load i32, ptr %86, align 4
  %88 = add i32 %87, 1
  store i32 %88, ptr %86, align 4
  br label %158

89:                                               ; preds = %6
  %90 = load ptr, ptr %7, align 8
  %91 = load i32, ptr @hf_zbee_zcl_power_config_batt_voltage, align 4
  %92 = load ptr, ptr %8, align 8
  %93 = load ptr, ptr %9, align 8
  %94 = load i32, ptr %93, align 4
  %95 = call ptr @proto_tree_add_item(ptr noundef %90, i32 noundef %91, ptr noundef %92, i32 noundef %94, i32 noundef 1, i32 noundef -2147483648)
  %96 = load ptr, ptr %9, align 8
  %97 = load i32, ptr %96, align 4
  %98 = add i32 %97, 1
  store i32 %98, ptr %96, align 4
  br label %158

99:                                               ; preds = %6
  %100 = load ptr, ptr %7, align 8
  %101 = load i32, ptr @hf_zbee_zcl_power_config_batt_percentage, align 4
  %102 = load ptr, ptr %8, align 8
  %103 = load ptr, ptr %9, align 8
  %104 = load i32, ptr %103, align 4
  %105 = call ptr @proto_tree_add_item(ptr noundef %100, i32 noundef %101, ptr noundef %102, i32 noundef %104, i32 noundef 1, i32 noundef -2147483648)
  %106 = load ptr, ptr %9, align 8
  %107 = load i32, ptr %106, align 4
  %108 = add i32 %107, 1
  store i32 %108, ptr %106, align 4
  br label %158

109:                                              ; preds = %6
  %110 = load ptr, ptr %7, align 8
  %111 = load i32, ptr @hf_zbee_zcl_power_config_batt_ah_rating, align 4
  %112 = load ptr, ptr %8, align 8
  %113 = load ptr, ptr %9, align 8
  %114 = load i32, ptr %113, align 4
  %115 = call ptr @proto_tree_add_item(ptr noundef %110, i32 noundef %111, ptr noundef %112, i32 noundef %114, i32 noundef 2, i32 noundef -2147483648)
  %116 = load ptr, ptr %9, align 8
  %117 = load i32, ptr %116, align 4
  %118 = add i32 %117, 2
  store i32 %118, ptr %116, align 4
  br label %158

119:                                              ; preds = %6
  %120 = load ptr, ptr %7, align 8
  %121 = load i32, ptr @hf_zbee_zcl_power_config_batt_rated_voltage, align 4
  %122 = load ptr, ptr %8, align 8
  %123 = load ptr, ptr %9, align 8
  %124 = load i32, ptr %123, align 4
  %125 = call ptr @proto_tree_add_item(ptr noundef %120, i32 noundef %121, ptr noundef %122, i32 noundef %124, i32 noundef 1, i32 noundef -2147483648)
  %126 = load ptr, ptr %9, align 8
  %127 = load i32, ptr %126, align 4
  %128 = add i32 %127, 1
  store i32 %128, ptr %126, align 4
  br label %158

129:                                              ; preds = %6
  %130 = load ptr, ptr %7, align 8
  %131 = load ptr, ptr %8, align 8
  %132 = load ptr, ptr %9, align 8
  %133 = load i32, ptr %132, align 4
  %134 = load i32, ptr @hf_zbee_zcl_power_config_batt_alarm_mask, align 4
  %135 = load i32, ptr @ett_zbee_zcl_power_config_batt_alarm_mask, align 4
  %136 = call ptr @proto_tree_add_bitmask(ptr noundef %130, ptr noundef %131, i32 noundef %133, i32 noundef %134, i32 noundef %135, ptr noundef @dissect_zcl_power_config_attr_data.batt_alarm_mask, i32 noundef -2147483648)
  %137 = load ptr, ptr %9, align 8
  %138 = load i32, ptr %137, align 4
  %139 = add i32 %138, 1
  store i32 %139, ptr %137, align 4
  br label %158

140:                                              ; preds = %6
  %141 = load ptr, ptr %7, align 8
  %142 = load i32, ptr @hf_zbee_zcl_power_config_batt_voltage_min_thr, align 4
  %143 = load ptr, ptr %8, align 8
  %144 = load ptr, ptr %9, align 8
  %145 = load i32, ptr %144, align 4
  %146 = call ptr @proto_tree_add_item(ptr noundef %141, i32 noundef %142, ptr noundef %143, i32 noundef %145, i32 noundef 1, i32 noundef -2147483648)
  %147 = load ptr, ptr %9, align 8
  %148 = load i32, ptr %147, align 4
  %149 = add i32 %148, 1
  store i32 %149, ptr %147, align 4
  br label %158

150:                                              ; preds = %6, %6
  br label %151

151:                                              ; preds = %6, %150
  %152 = load ptr, ptr %8, align 8
  %153 = load ptr, ptr %7, align 8
  %154 = load ptr, ptr %9, align 8
  %155 = load i32, ptr %11, align 4
  %156 = load i8, ptr %12, align 1, !range !6, !noundef !7
  %157 = trunc i8 %156 to i1
  call void @dissect_zcl_attr_data(ptr noundef %152, ptr noundef %153, ptr noundef %154, i32 noundef %155, i1 noundef zeroext %157)
  br label %158

158:                                              ; preds = %151, %140, %129, %119, %109, %99, %89, %79, %68, %58, %48, %37, %27, %17
  call void @llvm.lifetime.end.p0(i64 8, ptr %13) #7
  ret void
}