; Function Attrs: null_pointer_is_valid sspstrong uwtable
define internal void @dissect_zcl_power_config_attr_data(ptr noundef %0, ptr noundef %1, ptr noundef %2, i16 noundef zeroext %3, i32 noundef %4, i1 noundef zeroext %5) #0 {
  switch i16 %3, label %87 [
    i16 0, label %7
    i16 1, label %13
    i16 16, label %19
    i16 17, label %26
    i16 18, label %32
    i16 19, label %38
    i16 49, label %44
    i16 32, label %50
    i16 33, label %56
    i16 50, label %62
    i16 52, label %68
    i16 53, label %74
    i16 54, label %81
  ]

7:                                                ; preds = %6
  %8 = load i32, ptr @hf_zbee_zcl_power_config_mains_voltage, align 4
  %9 = load i32, ptr %2, align 4
  %10 = tail call ptr @proto_tree_add_item(ptr noundef %0, i32 noundef %8, ptr noundef %1, i32 noundef %9, i32 noundef 2, i32 noundef -2147483648)
  %11 = load i32, ptr %2, align 4
  %12 = add i32 %11, 2
  store i32 %12, ptr %2, align 4
  br label %88

13:                                               ; preds = %6
  %14 = load i32, ptr @hf_zbee_zcl_power_config_mains_frequency, align 4
  %15 = load i32, ptr %2, align 4
  %16 = tail call ptr @proto_tree_add_item(ptr noundef %0, i32 noundef %14, ptr noundef %1, i32 noundef %15, i32 noundef 1, i32 noundef -2147483648)
  %17 = load i32, ptr %2, align 4
  %18 = add i32 %17, 1
  store i32 %18, ptr %2, align 4
  br label %88

19:                                               ; preds = %6
  %20 = load i32, ptr %2, align 4
  %21 = load i32, ptr @hf_zbee_zcl_power_config_mains_alarm_mask, align 4
  %22 = load i32, ptr @ett_zbee_zcl_power_config_mains_alarm_mask, align 4
  %23 = tail call ptr @proto_tree_add_bitmask(ptr noundef %0, ptr noundef %1, i32 noundef %20, i32 noundef %21, i32 noundef %22, ptr noundef nonnull @dissect_zcl_power_config_attr_data.mains_alarm_mask, i32 noundef -2147483648)
  %24 = load i32, ptr %2, align 4
  %25 = add i32 %24, 1
  store i32 %25, ptr %2, align 4
  br label %88

26:                                               ; preds = %6
  %27 = load i32, ptr @hf_zbee_zcl_power_config_mains_voltage_min_thr, align 4
  %28 = load i32, ptr %2, align 4
  %29 = tail call ptr @proto_tree_add_item(ptr noundef %0, i32 noundef %27, ptr noundef %1, i32 noundef %28, i32 noundef 2, i32 noundef -2147483648)
  %30 = load i32, ptr %2, align 4
  %31 = add i32 %30, 2
  store i32 %31, ptr %2, align 4
  br label %88

32:                                               ; preds = %6
  %33 = load i32, ptr @hf_zbee_zcl_power_config_mains_voltage_max_thr, align 4
  %34 = load i32, ptr %2, align 4
  %35 = tail call ptr @proto_tree_add_item(ptr noundef %0, i32 noundef %33, ptr noundef %1, i32 noundef %34, i32 noundef 2, i32 noundef -2147483648)
  %36 = load i32, ptr %2, align 4
  %37 = add i32 %36, 2
  store i32 %37, ptr %2, align 4
  br label %88

38:                                               ; preds = %6
  %39 = load i32, ptr @hf_zbee_zcl_power_config_mains_voltage_dwell_tp, align 4
  %40 = load i32, ptr %2, align 4
  %41 = tail call ptr @proto_tree_add_item(ptr noundef %0, i32 noundef %39, ptr noundef %1, i32 noundef %40, i32 noundef 2, i32 noundef -2147483648)
  tail call void (ptr, ptr, ...) @proto_item_append_text(ptr noundef %41, ptr noundef nonnull @.str.1217)
  %42 = load i32, ptr %2, align 4
  %43 = add i32 %42, 2
  store i32 %43, ptr %2, align 4
  br label %88

44:                                               ; preds = %6
  %45 = load i32, ptr @hf_zbee_zcl_power_config_batt_type, align 4
  %46 = load i32, ptr %2, align 4
  %47 = tail call ptr @proto_tree_add_item(ptr noundef %0, i32 noundef %45, ptr noundef %1, i32 noundef %46, i32 noundef 1, i32 noundef -2147483648)
  %48 = load i32, ptr %2, align 4
  %49 = add i32 %48, 1
  store i32 %49, ptr %2, align 4
  br label %88

50:                                               ; preds = %6
  %51 = load i32, ptr @hf_zbee_zcl_power_config_batt_voltage, align 4
  %52 = load i32, ptr %2, align 4
  %53 = tail call ptr @proto_tree_add_item(ptr noundef %0, i32 noundef %51, ptr noundef %1, i32 noundef %52, i32 noundef 1, i32 noundef -2147483648)
  %54 = load i32, ptr %2, align 4
  %55 = add i32 %54, 1
  store i32 %55, ptr %2, align 4
  br label %88

56:                                               ; preds = %6
  %57 = load i32, ptr @hf_zbee_zcl_power_config_batt_percentage, align 4
  %58 = load i32, ptr %2, align 4
  %59 = tail call ptr @proto_tree_add_item(ptr noundef %0, i32 noundef %57, ptr noundef %1, i32 noundef %58, i32 noundef 1, i32 noundef -2147483648)
  %60 = load i32, ptr %2, align 4
  %61 = add i32 %60, 1
  store i32 %61, ptr %2, align 4
  br label %88

62:                                               ; preds = %6
  %63 = load i32, ptr @hf_zbee_zcl_power_config_batt_ah_rating, align 4
  %64 = load i32, ptr %2, align 4
  %65 = tail call ptr @proto_tree_add_item(ptr noundef %0, i32 noundef %63, ptr noundef %1, i32 noundef %64, i32 noundef 2, i32 noundef -2147483648)
  %66 = load i32, ptr %2, align 4
  %67 = add i32 %66, 2
  store i32 %67, ptr %2, align 4
  br label %88

68:                                               ; preds = %6
  %69 = load i32, ptr @hf_zbee_zcl_power_config_batt_rated_voltage, align 4
  %70 = load i32, ptr %2, align 4
  %71 = tail call ptr @proto_tree_add_item(ptr noundef %0, i32 noundef %69, ptr noundef %1, i32 noundef %70, i32 noundef 1, i32 noundef -2147483648)
  %72 = load i32, ptr %2, align 4
  %73 = add i32 %72, 1
  store i32 %73, ptr %2, align 4
  br label %88

74:                                               ; preds = %6
  %75 = load i32, ptr %2, align 4
  %76 = load i32, ptr @hf_zbee_zcl_power_config_batt_alarm_mask, align 4
  %77 = load i32, ptr @ett_zbee_zcl_power_config_batt_alarm_mask, align 4
  %78 = tail call ptr @proto_tree_add_bitmask(ptr noundef %0, ptr noundef %1, i32 noundef %75, i32 noundef %76, i32 noundef %77, ptr noundef nonnull @dissect_zcl_power_config_attr_data.batt_alarm_mask, i32 noundef -2147483648)
  %79 = load i32, ptr %2, align 4
  %80 = add i32 %79, 1
  store i32 %80, ptr %2, align 4
  br label %88

81:                                               ; preds = %6
  %82 = load i32, ptr @hf_zbee_zcl_power_config_batt_voltage_min_thr, align 4
  %83 = load i32, ptr %2, align 4
  %84 = tail call ptr @proto_tree_add_item(ptr noundef %0, i32 noundef %82, ptr noundef %1, i32 noundef %83, i32 noundef 1, i32 noundef -2147483648)
  %85 = load i32, ptr %2, align 4
  %86 = add i32 %85, 1
  store i32 %86, ptr %2, align 4
  br label %88

87:                                               ; preds = %6
  tail call void @dissect_zcl_attr_data(ptr noundef %1, ptr noundef %0, ptr noundef %2, i32 noundef %4, i1 noundef zeroext %5)
  br label %88

88:                                               ; preds = %87, %81, %74, %68, %62, %56, %50, %44, %38, %32, %26, %19, %13, %7
  ret void
}